target datalayout = "e-m:e-p270:32:32-p271:32:32-p272:64:64-i64:64-i128:128-f80:128-n8:16:32:64-S128"
target triple = "x86_64-pc-linux-gnu"

%struct.internal_hooks = type { ptr, ptr, ptr }
%struct.cJSON = type { ptr, ptr, ptr, i32, ptr, i32, double, ptr }

@global_hooks = internal global %struct.internal_hooks { ptr @malloc, ptr @free, ptr @realloc }, align 8

; Function Attrs: nounwind sspstrong uwtable
define internal ptr @cast_away_const(ptr noundef %0) #0 {
  %2 = alloca ptr, align 8
  store ptr %0, ptr %2, align 8, !tbaa !37
  %3 = load ptr, ptr %2, align 8, !tbaa !37
  ret ptr %3
}

; Function Attrs: nounwind sspstrong uwtable
define internal ptr @cJSON_New_Item(ptr noundef %0) #0 {
  %2 = alloca ptr, align 8
  %3 = alloca ptr, align 8
  store ptr %0, ptr %2, align 8, !tbaa !35
  call void @llvm.lifetime.start.p0(i64 8, ptr %3) #10
  %4 = load ptr, ptr %2, align 8, !tbaa !35
  %5 = getelementptr inbounds nuw %struct.internal_hooks, ptr %4, i32 0, i32 0
  %6 = load ptr, ptr %5, align 8, !tbaa !21
  %7 = call ptr %6(i64 noundef 64)
  store ptr %7, ptr %3, align 8, !tbaa !11
  %8 = load ptr, ptr %3, align 8, !tbaa !11
  %9 = icmp ne ptr %8, null
  br i1 %9, label %10, label %12

10:                                               ; preds = %1
  %11 = load ptr, ptr %3, align 8, !tbaa !11
  call void @llvm.memset.p0.i64(ptr align 8 %11, i8 0, i64 64, i1 false)
  br label %12

12:                                               ; preds = %10, %1
  %13 = load ptr, ptr %3, align 8, !tbaa !11
  call void @llvm.lifetime.end.p0(i64 8, ptr %3) #10
  ret ptr %13
}

; Function Attrs: nounwind sspstrong uwtable
define ptr @cJSON_CreateArrayReference(ptr noundef %0) #0 {
  %2 = alloca ptr, align 8
  %3 = alloca ptr, align 8
  store ptr %0, ptr %2, align 8, !tbaa !11
  call void @llvm.lifetime.start.p0(i64 8, ptr %3) #10
  %4 = call ptr @cJSON_New_Item(ptr noundef @global_hooks)
  store ptr %4, ptr %3, align 8, !tbaa !11
  %5 = load ptr, ptr %3, align 8, !tbaa !11
  %6 = icmp ne ptr %5, null
  br i1 %6, label %7, label %14

7:                                                ; preds = %1
  %8 = load ptr, ptr %3, align 8, !tbaa !11
  %9 = getelementptr inbounds nuw %struct.cJSON, ptr %8, i32 0, i32 3
  store i32 288, ptr %9, align 8, !tbaa !17
  %10 = load ptr, ptr %2, align 8, !tbaa !11
  %11 = call ptr @cast_away_const(ptr noundef %10)
  %12 = load ptr, ptr %3, align 8, !tbaa !11
  %13 = getelementptr inbounds nuw %struct.cJSON, ptr %12, i32 0, i32 2
  store ptr %11, ptr %13, align 8, !tbaa !29
  br label %14

14:                                               ; preds = %7, %1
  %15 = load ptr, ptr %3, align 8, !tbaa !11
  call void @llvm.lifetime.end.p0(i64 8, ptr %3) #10
  ret ptr %15
}