; Function Attrs: nounwind sspstrong uwtable
define ptr @cJSON_CreateArrayReference(ptr noundef %0) local_unnamed_addr #8 {
  %global_hooks.val = load ptr, ptr @global_hooks, align 8, !tbaa !18
  %2 = tail call ptr %global_hooks.val(i64 noundef 64) #31
  %.not.i = icmp eq ptr %2, null
  br i1 %.not.i, label %cJSON_New_Item.exit.thread, label %3

3:                                                ; preds = %1
  tail call void @llvm.memset.p0.i64(ptr noundef nonnull align 8 dereferenceable(64) %2, i8 0, i64 64, i1 false)
  %4 = getelementptr inbounds nuw i8, ptr %2, i64 24
  store i32 288, ptr %4, align 8, !tbaa !11
  %5 = getelementptr inbounds nuw i8, ptr %2, i64 16
  store ptr %0, ptr %5, align 8, !tbaa !25
  br label %cJSON_New_Item.exit.thread

cJSON_New_Item.exit.thread:                       ; preds = %1, %3
  ret ptr %2
}